; Function Attrs: mustprogress uwtable
define void @_ZNK3nix8fetchers5Input14getFingerprintB5cxx11ENS_3refINS_5StoreEEE(ptr dead_on_unwind noalias writable sret(%"class.std::optional") align 8 %0, ptr noundef nonnull align 8 dereferenceable(104) %1, ptr nocapture noundef readonly %2) local_unnamed_addr #5 align 2 personality ptr @__gxx_personality_v0 {
  %4 = alloca %"class.nix::ref", align 8
  %5 = load ptr, ptr %1, align 8
  %.not = icmp eq ptr %5, null
  br i1 %.not, label %22, label %6

6:                                                ; preds = %3
  %7 = load ptr, ptr %2, align 8
  store ptr %7, ptr %4, align 8
  %8 = getelementptr inbounds i8, ptr %4, i64 8
  %9 = getelementptr inbounds i8, ptr %2, i64 8
  %10 = load ptr, ptr %9, align 8
  store ptr %10, ptr %8, align 8
  %.not.i.i.i.i = icmp eq ptr %10, null
  br i1 %.not.i.i.i.i, label %_ZN3nix3refINS_5StoreEEC2ERKS2_.exit, label %11

11:                                               ; preds = %6
  %12 = getelementptr inbounds i8, ptr %10, i64 8
  %13 = load i8, ptr @__libc_single_threaded, align 1
  %.not.i.i.i.i.i = icmp eq i8 %13, 0
  br i1 %.not.i.i.i.i.i, label %17, label %14

14:                                               ; preds = %11
  %15 = load i32, ptr %12, align 4
  %16 = add nsw i32 %15, 1
  store i32 %16, ptr %12, align 4
  br label %_ZN3nix3refINS_5StoreEEC2ERKS2_.exit

17:                                               ; preds = %11
  %18 = atomicrmw volatile add ptr %12, i32 1 acq_rel, align 4
  br label %_ZN3nix3refINS_5StoreEEC2ERKS2_.exit

_ZN3nix3refINS_5StoreEEC2ERKS2_.exit:             ; preds = %6, %14, %17
  %19 = load ptr, ptr %5, align 8
  %20 = getelementptr inbounds i8, ptr %19, i64 120
  %21 = load ptr, ptr %20, align 8
  invoke void %21(ptr dead_on_unwind writable sret(%"class.std::optional") align 8 %0, ptr noundef nonnull align 8 dereferenceable(8) %5, ptr noundef nonnull %4, ptr noundef nonnull align 8 dereferenceable(104) %1)
          to label %24 unwind label %60

22:                                               ; preds = %3
  %23 = getelementptr inbounds i8, ptr %0, i64 32
  store i8 0, ptr %23, align 8
  br label %_ZN3nix3refINS_5StoreEED2Ev.exit

24:                                               ; preds = %_ZN3nix3refINS_5StoreEEC2ERKS2_.exit
  %25 = load ptr, ptr %8, align 8
  %.not.i.i.i.i4 = icmp eq ptr %25, null
  br i1 %.not.i.i.i.i4, label %_ZN3nix3refINS_5StoreEED2Ev.exit, label %26

26:                                               ; preds = %24
  %27 = getelementptr inbounds i8, ptr %25, i64 8
  %28 = load atomic i64, ptr %27 acquire, align 8
  %29 = icmp eq i64 %28, 4294967297
  %30 = trunc i64 %28 to i32
  br i1 %29, label %31, label %36

31:                                               ; preds = %26
  store i32 0, ptr %27, align 8
  %32 = getelementptr inbounds i8, ptr %25, i64 12
  store i32 0, ptr %32, align 4
  %33 = load ptr, ptr %25, align 8
  %34 = getelementptr inbounds i8, ptr %33, i64 16
  %35 = load ptr, ptr %34, align 8
  call void %35(ptr noundef nonnull align 8 dereferenceable(16) %25) #27
  br label %_ZNSt16_Sp_counted_baseILN9__gnu_cxx12_Lock_policyE2EE24_M_release_last_use_coldEv.exit.sink.split.i.i.i.i.i

36:                                               ; preds = %26
  %37 = load i8, ptr @__libc_single_threaded, align 1
  %.not.i.i.i.i.i5 = icmp eq i8 %37, 0
  br i1 %.not.i.i.i.i.i5, label %40, label %38

38:                                               ; preds = %36
  %39 = add nsw i32 %30, -1
  store i32 %39, ptr %27, align 4
  br label %42

40:                                               ; preds = %36
  %41 = atomicrmw volatile add ptr %27, i32 -1 acq_rel, align 4
  br label %42

42:                                               ; preds = %40, %38
  %.0.i.i.i.i.i = phi i32 [ %30, %38 ], [ %41, %40 ]
  %43 = icmp eq i32 %.0.i.i.i.i.i, 1
  br i1 %43, label %44, label %_ZN3nix3refINS_5StoreEED2Ev.exit

44:                                               ; preds = %42
  %45 = load ptr, ptr %25, align 8
  %46 = getelementptr inbounds i8, ptr %45, i64 16
  %47 = load ptr, ptr %46, align 8
  call void %47(ptr noundef nonnull align 8 dereferenceable(16) %25) #27
  %48 = getelementptr inbounds i8, ptr %25, i64 12
  %49 = load i8, ptr @__libc_single_threaded, align 1
  %.not.i.i.i.i.i.i.i = icmp eq i8 %49, 0
  br i1 %.not.i.i.i.i.i.i.i, label %53, label %50

50:                                               ; preds = %44
  %51 = load i32, ptr %48, align 4
  %52 = add nsw i32 %51, -1
  store i32 %52, ptr %48, align 4
  br label %55

53:                                               ; preds = %44
  %54 = atomicrmw volatile add ptr %48, i32 -1 acq_rel, align 4
  br label %55

55:                                               ; preds = %53, %50
  %.0.i.i.i.i.i.i.i = phi i32 [ %51, %50 ], [ %54, %53 ]
  %56 = icmp eq i32 %.0.i.i.i.i.i.i.i, 1
  br i1 %56, label %_ZNSt16_Sp_counted_baseILN9__gnu_cxx12_Lock_policyE2EE24_M_release_last_use_coldEv.exit.sink.split.i.i.i.i.i, label %_ZN3nix3refINS_5StoreEED2Ev.exit

_ZNSt16_Sp_counted_baseILN9__gnu_cxx12_Lock_policyE2EE24_M_release_last_use_coldEv.exit.sink.split.i.i.i.i.i: ; preds = %55, %31
  %57 = load ptr, ptr %25, align 8
  %58 = getelementptr inbounds i8, ptr %57, i64 24
  %59 = load ptr, ptr %58, align 8
  call void %59(ptr noundef nonnull align 8 dereferenceable(16) %25) #27
  br label %_ZN3nix3refINS_5StoreEED2Ev.exit

_ZN3nix3refINS_5StoreEED2Ev.exit:                 ; preds = %_ZNSt16_Sp_counted_baseILN9__gnu_cxx12_Lock_policyE2EE24_M_release_last_use_coldEv.exit.sink.split.i.i.i.i.i, %55, %42, %24, %22
  ret void

60:                                               ; preds = %_ZN3nix3refINS_5StoreEEC2ERKS2_.exit
  %61 = landingpad { ptr, i32 }
          cleanup
  call void @_ZN3nix3refINS_5StoreEED2Ev(ptr noundef nonnull align 8 dereferenceable(16) %4) #27
  resume { ptr, i32 } %61
}